; Function Attrs: mustprogress uwtable
define noundef zeroext i1 @_Z37grpc_add_closure_to_background_pollerP12grpc_closureN4absl12lts_202407226StatusE(ptr noundef %0, ptr noundef readonly captures(none) %1) local_unnamed_addr #7 personality ptr @__gxx_personality_v0 {
  %3 = alloca %"class.absl::lts_20240722::Status", align 8
  %4 = load ptr, ptr @_ZL14g_event_engine, align 8, !tbaa !3
  %5 = getelementptr inbounds nuw i8, ptr %4, i64 264
  %6 = load ptr, ptr %5, align 8, !tbaa !51
  %7 = load i64, ptr %1, align 8, !tbaa !26
  store i64 %7, ptr %3, align 8, !tbaa !26
  %8 = and i64 %7, 1
  %.not.i.i = icmp eq i64 %8, 0
  br i1 %.not.i.i, label %9, label %_ZN4absl12lts_202407226StatusC2ERKS1_.exit

9:                                                ; preds = %2
  %10 = inttoptr i64 %7 to ptr
  %11 = atomicrmw add ptr %10, i32 1 monotonic, align 4
  br label %_ZN4absl12lts_202407226StatusC2ERKS1_.exit

_ZN4absl12lts_202407226StatusC2ERKS1_.exit:       ; preds = %2, %9
  %12 = invoke noundef zeroext i1 %6(ptr noundef %0, ptr noundef nonnull %3)
          to label %13 unwind label %21

13:                                               ; preds = %_ZN4absl12lts_202407226StatusC2ERKS1_.exit
  %14 = load i64, ptr %3, align 8, !tbaa !26
  %15 = and i64 %14, 1
  %.not.i.i2 = icmp eq i64 %15, 0
  br i1 %.not.i.i2, label %16, label %_ZN4absl12lts_202407226StatusD2Ev.exit

16:                                               ; preds = %13
  %17 = inttoptr i64 %14 to ptr
  invoke void @_ZNK4absl12lts_2024072215status_internal9StatusRep5UnrefEv(ptr noundef nonnull align 8 dereferenceable(48) %17)
          to label %_ZN4absl12lts_202407226StatusD2Ev.exit unwind label %18

18:                                               ; preds = %16
  %19 = landingpad { ptr, i32 }
          catch ptr null
  %20 = extractvalue { ptr, i32 } %19, 0
  call void @__clang_call_terminate(ptr %20) #22
  unreachable

_ZN4absl12lts_202407226StatusD2Ev.exit:           ; preds = %13, %16
  ret i1 %12

21:                                               ; preds = %_ZN4absl12lts_202407226StatusC2ERKS1_.exit
  %22 = landingpad { ptr, i32 }
          cleanup
  call void @_ZN4absl12lts_202407226StatusD2Ev(ptr noundef nonnull align 8 dereferenceable(8) %3) #23
  resume { ptr, i32 } %22
}